target datalayout = "e-m:e-p270:32:32-p271:32:32-p272:64:64-i64:64-i128:128-f80:128-n8:16:32:64-S128"
target triple = "x86_64-pc-linux-gnu"

%struct.ShortenContext = type { ptr, %struct.GetBitContext, i32, i32, i32, [8 x ptr], [8 x ptr], [8 x ptr], ptr, ptr, i32, i32, i32, i32, [16384 x i8], i32, i32, i32, i32, i32, i32, i32, i32, i32, i32, i32, i32, %struct.BswapDSPContext }
%struct.GetBitContext = type { ptr, ptr, i32, i32, i32 }
%struct.BswapDSPContext = type { ptr, ptr }

; Function Attrs: inlinehint nounwind uwtable
define internal i32 @get_ur_golomb_shorten(ptr noundef %0, i32 noundef %1) #6 {
  %3 = alloca ptr, align 8
  %4 = alloca i32, align 4
  store ptr %0, ptr %3, align 8, !tbaa !86
  store i32 %1, ptr %4, align 4, !tbaa !44
  %5 = load ptr, ptr %3, align 8, !tbaa !86
  %6 = load i32, ptr %4, align 4, !tbaa !44
  %7 = call i32 @get_ur_golomb_jpegls(ptr noundef %5, i32 noundef %6, i32 noundef 2147483647, i32 noundef 0)
  ret i32 %7
}

; Function Attrs: inlinehint nounwind uwtable
define internal i32 @get_uint(ptr noundef %0, i32 noundef %1) #6 {
  %3 = alloca i32, align 4
  %4 = alloca ptr, align 8
  %5 = alloca i32, align 4
  store ptr %0, ptr %4, align 8, !tbaa !29
  store i32 %1, ptr %5, align 4, !tbaa !44
  %6 = load ptr, ptr %4, align 8, !tbaa !29
  %7 = getelementptr inbounds nuw %struct.ShortenContext, ptr %6, i32 0, i32 15
  %8 = load i32, ptr %7, align 8, !tbaa !61
  %9 = icmp ne i32 %8, 0
  br i1 %9, label %10, label %18

10:                                               ; preds = %2
  %11 = load ptr, ptr %4, align 8, !tbaa !29
  %12 = getelementptr inbounds nuw %struct.ShortenContext, ptr %11, i32 0, i32 1
  %13 = call i32 @get_ur_golomb_shorten(ptr noundef %12, i32 noundef 2)
  store i32 %13, ptr %5, align 4, !tbaa !44
  %14 = load i32, ptr %5, align 4, !tbaa !44
  %15 = icmp ugt i32 %14, 31
  br i1 %15, label %16, label %17

16:                                               ; preds = %10
  store i32 -1094995529, ptr %3, align 4
  br label %23

17:                                               ; preds = %10
  br label %18

18:                                               ; preds = %17, %2
  %19 = load ptr, ptr %4, align 8, !tbaa !29
  %20 = getelementptr inbounds nuw %struct.ShortenContext, ptr %19, i32 0, i32 1
  %21 = load i32, ptr %5, align 4, !tbaa !44
  %22 = call i32 @get_ur_golomb_shorten(ptr noundef %20, i32 noundef %21)
  store i32 %22, ptr %3, align 4
  br label %23

23:                                               ; preds = %18, %16
  %24 = load i32, ptr %3, align 4
  ret i32 %24
}