; Function Attrs: inlinehint nofree norecurse nosync nounwind memory(read, argmem: readwrite, inaccessiblemem: none) uwtable
define internal fastcc i32 @get_uint(ptr noundef captures(none) %0, i32 noundef %1) unnamed_addr #5 {
  %3 = getelementptr inbounds nuw i8, ptr %0, i64 16664
  %4 = load i32, ptr %3, align 8, !tbaa !52
  %.not = icmp eq i32 %4, 0
  br i1 %.not, label %79, label %5

5:                                                ; preds = %2
  %6 = getelementptr inbounds nuw i8, ptr %0, i64 8
  %7 = getelementptr inbounds nuw i8, ptr %0, i64 24
  %8 = load i32, ptr %7, align 8, !tbaa !45
  %9 = getelementptr inbounds nuw i8, ptr %0, i64 32
  %10 = load i32, ptr %9, align 8, !tbaa !43
  %11 = load ptr, ptr %6, align 8, !tbaa !41
  %12 = lshr i32 %8, 3
  %13 = zext nneg i32 %12 to i64
  %14 = getelementptr inbounds nuw i8, ptr %11, i64 %13
  %15 = load i32, ptr %14, align 1, !tbaa !48
  %16 = tail call i32 @llvm.bswap.i32(i32 %15)
  %17 = and i32 %8, 7
  %18 = shl i32 %16, %17
  %.not.i.i = icmp ult i32 %18, 65536
  %19 = lshr i32 %18, 16
  %spec.select.i.i = select i1 %.not.i.i, i32 %18, i32 %19
  %spec.select12.i.i = select i1 %.not.i.i, i32 0, i32 16
  %.not11.i.i = icmp samesign ult i32 %spec.select.i.i, 256
  %20 = lshr i32 %spec.select.i.i, 8
  %21 = or disjoint i32 %spec.select12.i.i, 8
  %.110.i.i = select i1 %.not11.i.i, i32 %spec.select.i.i, i32 %20
  %.1.i.i = select i1 %.not11.i.i, i32 %spec.select12.i.i, i32 %21
  %22 = zext nneg i32 %.110.i.i to i64
  %23 = getelementptr inbounds nuw [256 x i8], ptr @ff_log2_tab, i64 0, i64 %22
  %24 = load i8, ptr %23, align 1, !tbaa !48
  %25 = zext i8 %24 to i32
  %26 = add nuw nsw i32 %.1.i.i, %25
  %27 = icmp samesign ult i32 %26, 9
  br i1 %27, label %.preheader127.i, label %31

.preheader127.i:                                  ; preds = %5
  %28 = icmp ult i32 %18, 128
  br i1 %28, label %.lr.ph.i, label %.preheader.i

.lr.ph.i:                                         ; preds = %.preheader127.i
  %29 = getelementptr inbounds nuw i8, ptr %0, i64 28
  %30 = load i32, ptr %29, align 4, !tbaa !42
  br label %41

31:                                               ; preds = %5
  %32 = add nsw i32 %26, -2
  %33 = lshr i32 %18, %32
  %34 = shl nuw nsw i32 %26, 2
  %reass.sub20 = sub nsw i32 %33, %34
  %35 = add nsw i32 %reass.sub20, 120
  %36 = add i32 %8, 34
  %37 = sub i32 %36, %26
  %..i = tail call i32 @llvm.umin.i32(i32 %10, i32 %37)
  br label %get_ur_golomb_jpegls.exit

.preheader.i:                                     ; preds = %43, %.preheader127.i
  %.0110.lcssa.i = phi i32 [ %8, %.preheader127.i ], [ %45, %43 ]
  %.0108.lcssa.i = phi i32 [ %18, %.preheader127.i ], [ %52, %43 ]
  %.0.lcssa.i = phi i32 [ 0, %.preheader127.i ], [ %42, %43 ]
  %38 = icmp ne i32 %.0.lcssa.i, 2147483647
  %39 = icmp sgt i32 %.0108.lcssa.i, -1
  %40 = and i1 %39, %38
  br i1 %40, label %.lr.ph137.i, label %._crit_edge.i

41:                                               ; preds = %43, %.lr.ph.i
  %42 = phi i32 [ 25, %.lr.ph.i ], [ %53, %43 ]
  %.0110131.i = phi i32 [ %8, %.lr.ph.i ], [ %45, %43 ]
  %.not123.i = icmp ugt i32 %30, %.0110131.i
  br i1 %.not123.i, label %43, label %get_ur_golomb_jpegls.exit.thread

43:                                               ; preds = %41
  %44 = add i32 %.0110131.i, 25
  %45 = tail call i32 @llvm.umin.i32(i32 %10, i32 %44)
  %46 = lshr i32 %45, 3
  %47 = zext nneg i32 %46 to i64
  %48 = getelementptr inbounds nuw i8, ptr %11, i64 %47
  %49 = load i32, ptr %48, align 1, !tbaa !48
  %50 = tail call i32 @llvm.bswap.i32(i32 %49)
  %51 = and i32 %45, 7
  %52 = shl i32 %50, %51
  %53 = add nuw nsw i32 %42, 25
  %54 = icmp ult i32 %52, 128
  br i1 %54, label %41, label %.preheader.i, !llvm.loop !61

.lr.ph137.i:                                      ; preds = %.preheader.i, %.lr.ph137.i
  %.1136.i = phi i32 [ %58, %.lr.ph137.i ], [ %.0.lcssa.i, %.preheader.i ]
  %.1109135.i = phi i32 [ %55, %.lr.ph137.i ], [ %.0108.lcssa.i, %.preheader.i ]
  %.1111134.i = phi i32 [ %57, %.lr.ph137.i ], [ %.0110.lcssa.i, %.preheader.i ]
  %55 = shl nuw i32 %.1109135.i, 1
  %56 = add i32 %.1111134.i, 1
  %57 = tail call i32 @llvm.umin.i32(i32 %10, i32 %56)
  %58 = add nuw nsw i32 %.1136.i, 1
  %59 = icmp ne i32 %58, 2147483647
  %60 = icmp sgt i32 %55, -1
  %61 = select i1 %59, i1 %60, i1 false
  br i1 %61, label %.lr.ph137.i, label %._crit_edge.i, !llvm.loop !62

._crit_edge.i:                                    ; preds = %.lr.ph137.i, %.preheader.i
  %.1111.lcssa.i = phi i32 [ %.0110.lcssa.i, %.preheader.i ], [ %57, %.lr.ph137.i ]
  %.1.lcssa.i = phi i32 [ %.0.lcssa.i, %.preheader.i ], [ %58, %.lr.ph137.i ]
  %62 = add i32 %.1111.lcssa.i, 1
  %63 = tail call i32 @llvm.umin.i32(i32 %10, i32 %62)
  %64 = icmp samesign ult i32 %.1.lcssa.i, 2147483646
  br i1 %64, label %65, label %76

65:                                               ; preds = %._crit_edge.i
  %66 = lshr i32 %63, 3
  %67 = zext nneg i32 %66 to i64
  %68 = getelementptr inbounds nuw i8, ptr %11, i64 %67
  %69 = load i32, ptr %68, align 1, !tbaa !48
  %70 = tail call i32 @llvm.bswap.i32(i32 %69)
  %71 = and i32 %63, 7
  %72 = shl i32 %70, %71
  %73 = add i32 %63, 2
  %74 = tail call i32 @llvm.umin.i32(i32 %10, i32 %73)
  %75 = tail call i32 @llvm.fshl.i32(i32 %.1.lcssa.i, i32 %72, i32 2)
  br label %get_ur_golomb_jpegls.exit

76:                                               ; preds = %._crit_edge.i
  %77 = icmp eq i32 %.1.lcssa.i, 2147483646
  br i1 %77, label %get_ur_golomb_jpegls.exit.thread9, label %get_ur_golomb_jpegls.exit.thread

get_ur_golomb_jpegls.exit.thread9:                ; preds = %76
  store i32 %63, ptr %7, align 8, !tbaa !45
  br label %79

get_ur_golomb_jpegls.exit.thread:                 ; preds = %41, %76
  %storemerge124.i.ph = phi i32 [ %63, %76 ], [ %.0110131.i, %41 ]
  store i32 %storemerge124.i.ph, ptr %7, align 8, !tbaa !45
  br label %82

get_ur_golomb_jpegls.exit:                        ; preds = %31, %65
  %storemerge124.i = phi i32 [ %..i, %31 ], [ %74, %65 ]
  %.0106.i = phi i32 [ %35, %31 ], [ %75, %65 ]
  store i32 %storemerge124.i, ptr %7, align 8, !tbaa !45
  %78 = icmp ugt i32 %.0106.i, 31
  br i1 %78, label %82, label %79

79:                                               ; preds = %get_ur_golomb_jpegls.exit.thread9, %get_ur_golomb_jpegls.exit, %2
  %.0 = phi i32 [ %.0106.i, %get_ur_golomb_jpegls.exit ], [ %1, %2 ], [ 1, %get_ur_golomb_jpegls.exit.thread9 ]
  %80 = getelementptr inbounds nuw i8, ptr %0, i64 8
  %81 = tail call fastcc i32 @get_ur_golomb_jpegls(ptr noundef nonnull %80, i32 noundef %.0)
  br label %82

82:                                               ; preds = %get_ur_golomb_jpegls.exit.thread, %get_ur_golomb_jpegls.exit, %79
  %.05 = phi i32 [ %81, %79 ], [ -1094995529, %get_ur_golomb_jpegls.exit ], [ -1094995529, %get_ur_golomb_jpegls.exit.thread ]
  ret i32 %.05
}